; Function Attrs: mustprogress nounwind uwtable
define dso_local noundef i64 @_ZNK4Luau7CodeGen19SharedCodeAllocator12ModuleIdHashclERKSt5arrayIhLm16EE(ptr nocapture noundef nonnull readnone align 1 dereferenceable(1) %0, ptr noundef nonnull align 1 dereferenceable(16) %1) local_unnamed_addr #0 align 2 personality ptr @__gxx_personality_v0 {
  %3 = invoke noundef i64 @_ZSt11_Hash_bytesPKvmm(ptr noundef nonnull %1, i64 noundef 16, i64 noundef 3339675911)
          to label %_ZNKSt4hashISt17basic_string_viewIcSt11char_traitsIcEEEclERKS3_.exit unwind label %4

4:                                                ; preds = %2
  %5 = landingpad { ptr, i32 }
          catch ptr null
  %6 = extractvalue { ptr, i32 } %5, 0
  tail call void @__clang_call_terminate(ptr %6) #21
  unreachable

_ZNKSt4hashISt17basic_string_viewIcSt11char_traitsIcEEEclERKS3_.exit: ; preds = %2
  ret i64 %3
}